target datalayout = "e-m:e-p270:32:32-p271:32:32-p272:64:64-i64:64-i128:128-f80:128-n8:16:32:64-S128"
target triple = "x86_64-pc-linux-gnu"

%struct.SwsInternal = type { %struct.SwsContext, ptr, ptr, ptr, ptr, i32, [2 x ptr], i32, i32, ptr, i32, i32, i32, i32, i32, i32, i32, i32, i32, i32, i32, i32, i32, i32, i32, i32, i32, i32, ptr, ptr, %struct.RangeList, [3 x ptr], [2 x [4 x i32]], [2 x [4 x ptr]], i32, double, i32, ptr, ptr, i32, [2 x i32], i32, ptr, ptr, [256 x i32], [256 x i32], [256 x float], i32, i32, ptr, i32, ptr, ptr, ptr, ptr, ptr, ptr, ptr, ptr, i32, i32, i32, i32, i32, i32, ptr, ptr, i32, i32, i32, ptr, [8 x i8], [1280 x i32], [1280 x ptr], [1280 x ptr], [1280 x ptr], [176 x i32], [4 x ptr], i32, i32, i32, [4 x i32], [4 x i32], i32, i32, i32, i32, i32, i32, i32, i32, i32, i32, i64, i64, i64, i64, i64, i64, i64, i64, i64, i64, i64, [1024 x i32], [1024 x i32], i32, i64, i64, i64, i64, i64, [1024 x i32], i64, i64, [8 x i16], [8 x i32], ptr, ptr, i32, ptr, ptr, ptr, ptr, [3 x [4 x i16]], [3 x [4 x i16]], ptr, ptr, ptr, ptr, ptr, ptr, ptr, ptr, ptr, ptr, ptr, ptr, ptr, ptr, ptr, ptr, ptr, ptr, ptr, ptr, i32, i32, i64, i64, i32, ptr, i32, ptr, i32, i32, i32, i32, i32, ptr }
%struct.SwsContext = type { ptr, ptr, i32, [2 x double], i32, i32, i32, i32, i32, i32, i32, i32, i32, i32, i32, i32, i32, i32, i32, i32, i32 }
%struct.RangeList = type { ptr, i32, i32 }

@ff_rgb24toyv12 = external global ptr, align 8

; Function Attrs: nounwind uwtable
define internal void @fillPlane(ptr noundef %0, i32 noundef %1, i32 noundef %2, i32 noundef %3, i32 noundef %4, i8 noundef zeroext %5) #0 {
  %7 = alloca ptr, align 8
  %8 = alloca i32, align 4
  %9 = alloca i32, align 4
  %10 = alloca i32, align 4
  %11 = alloca i32, align 4
  %12 = alloca i8, align 1
  %13 = alloca i32, align 4
  %14 = alloca ptr, align 8
  store ptr %0, ptr %7, align 8, !tbaa !4
  store i32 %1, ptr %8, align 4, !tbaa !9
  store i32 %2, ptr %9, align 4, !tbaa !9
  store i32 %3, ptr %10, align 4, !tbaa !9
  store i32 %4, ptr %11, align 4, !tbaa !9
  store i8 %5, ptr %12, align 1, !tbaa !67
  call void @llvm.lifetime.start.p0(i64 4, ptr %13) #11
  call void @llvm.lifetime.start.p0(i64 8, ptr %14) #11
  %15 = load ptr, ptr %7, align 8, !tbaa !4
  %16 = load i32, ptr %8, align 4, !tbaa !9
  %17 = load i32, ptr %11, align 4, !tbaa !9
  %18 = mul nsw i32 %16, %17
  %19 = sext i32 %18 to i64
  %20 = getelementptr inbounds i8, ptr %15, i64 %19
  store ptr %20, ptr %14, align 8, !tbaa !4
  store i32 0, ptr %13, align 4, !tbaa !9
  br label %21

21:                                               ; preds = %36, %6
  %22 = load i32, ptr %13, align 4, !tbaa !9
  %23 = load i32, ptr %10, align 4, !tbaa !9
  %24 = icmp slt i32 %22, %23
  br i1 %24, label %25, label %39

25:                                               ; preds = %21
  %26 = load ptr, ptr %14, align 8, !tbaa !4
  %27 = load i8, ptr %12, align 1, !tbaa !67
  %28 = zext i8 %27 to i32
  %29 = trunc i32 %28 to i8
  %30 = load i32, ptr %9, align 4, !tbaa !9
  %31 = sext i32 %30 to i64
  call void @llvm.memset.p0.i64(ptr align 1 %26, i8 %29, i64 %31, i1 false)
  %32 = load i32, ptr %8, align 4, !tbaa !9
  %33 = load ptr, ptr %14, align 8, !tbaa !4
  %34 = sext i32 %32 to i64
  %35 = getelementptr inbounds i8, ptr %33, i64 %34
  store ptr %35, ptr %14, align 8, !tbaa !4
  br label %36

36:                                               ; preds = %25
  %37 = load i32, ptr %13, align 4, !tbaa !9
  %38 = add nsw i32 %37, 1
  store i32 %38, ptr %13, align 4, !tbaa !9
  br label %21, !llvm.loop !183

39:                                               ; preds = %21
  call void @llvm.lifetime.end.p0(i64 8, ptr %14) #11
  call void @llvm.lifetime.end.p0(i64 4, ptr %13) #11
  ret void
}

; Function Attrs: nounwind uwtable
define internal i32 @bgr24ToYv12Wrapper(ptr noundef %0, ptr noundef %1, ptr noundef %2, i32 noundef %3, i32 noundef %4, ptr noundef %5, ptr noundef %6) #0 {
  %8 = alloca ptr, align 8
  %9 = alloca ptr, align 8
  %10 = alloca ptr, align 8
  %11 = alloca i32, align 4
  %12 = alloca i32, align 4
  %13 = alloca ptr, align 8
  %14 = alloca ptr, align 8
  store ptr %0, ptr %8, align 8, !tbaa !13
  store ptr %1, ptr %9, align 8, !tbaa !52
  store ptr %2, ptr %10, align 8, !tbaa !54
  store i32 %3, ptr %11, align 4, !tbaa !9
  store i32 %4, ptr %12, align 4, !tbaa !9
  store ptr %5, ptr %13, align 8, !tbaa !52
  store ptr %6, ptr %14, align 8, !tbaa !54
  %15 = load ptr, ptr @ff_rgb24toyv12, align 8, !tbaa !56
  %16 = load ptr, ptr %9, align 8, !tbaa !52
  %17 = getelementptr inbounds ptr, ptr %16, i64 0
  %18 = load ptr, ptr %17, align 8, !tbaa !4
  %19 = load ptr, ptr %13, align 8, !tbaa !52
  %20 = getelementptr inbounds ptr, ptr %19, i64 0
  %21 = load ptr, ptr %20, align 8, !tbaa !4
  %22 = load i32, ptr %11, align 4, !tbaa !9
  %23 = load ptr, ptr %14, align 8, !tbaa !54
  %24 = getelementptr inbounds i32, ptr %23, i64 0
  %25 = load i32, ptr %24, align 4, !tbaa !9
  %26 = mul nsw i32 %22, %25
  %27 = sext i32 %26 to i64
  %28 = getelementptr inbounds i8, ptr %21, i64 %27
  %29 = load ptr, ptr %13, align 8, !tbaa !52
  %30 = getelementptr inbounds ptr, ptr %29, i64 1
  %31 = load ptr, ptr %30, align 8, !tbaa !4
  %32 = load i32, ptr %11, align 4, !tbaa !9
  %33 = ashr i32 %32, 1
  %34 = load ptr, ptr %14, align 8, !tbaa !54
  %35 = getelementptr inbounds i32, ptr %34, i64 1
  %36 = load i32, ptr %35, align 4, !tbaa !9
  %37 = mul nsw i32 %33, %36
  %38 = sext i32 %37 to i64
  %39 = getelementptr inbounds i8, ptr %31, i64 %38
  %40 = load ptr, ptr %13, align 8, !tbaa !52
  %41 = getelementptr inbounds ptr, ptr %40, i64 2
  %42 = load ptr, ptr %41, align 8, !tbaa !4
  %43 = load i32, ptr %11, align 4, !tbaa !9
  %44 = ashr i32 %43, 1
  %45 = load ptr, ptr %14, align 8, !tbaa !54
  %46 = getelementptr inbounds i32, ptr %45, i64 2
  %47 = load i32, ptr %46, align 4, !tbaa !9
  %48 = mul nsw i32 %44, %47
  %49 = sext i32 %48 to i64
  %50 = getelementptr inbounds i8, ptr %42, i64 %49
  %51 = load ptr, ptr %8, align 8, !tbaa !13
  %52 = getelementptr inbounds nuw %struct.SwsInternal, ptr %51, i32 0, i32 0
  %53 = getelementptr inbounds nuw %struct.SwsContext, ptr %52, i32 0, i32 8
  %54 = load i32, ptr %53, align 8, !tbaa !55
  %55 = load i32, ptr %12, align 4, !tbaa !9
  %56 = load ptr, ptr %14, align 8, !tbaa !54
  %57 = getelementptr inbounds i32, ptr %56, i64 0
  %58 = load i32, ptr %57, align 4, !tbaa !9
  %59 = load ptr, ptr %14, align 8, !tbaa !54
  %60 = getelementptr inbounds i32, ptr %59, i64 1
  %61 = load i32, ptr %60, align 4, !tbaa !9
  %62 = load ptr, ptr %10, align 8, !tbaa !54
  %63 = getelementptr inbounds i32, ptr %62, i64 0
  %64 = load i32, ptr %63, align 4, !tbaa !9
  %65 = load ptr, ptr %8, align 8, !tbaa !13
  %66 = getelementptr inbounds nuw %struct.SwsInternal, ptr %65, i32 0, i32 76
  %67 = getelementptr inbounds [176 x i32], ptr %66, i64 0, i64 0
  call void %15(ptr noundef %18, ptr noundef %28, ptr noundef %39, ptr noundef %50, i32 noundef %54, i32 noundef %55, i32 noundef %58, i32 noundef %61, i32 noundef %64, ptr noundef %67)
  %68 = load ptr, ptr %13, align 8, !tbaa !52
  %69 = getelementptr inbounds ptr, ptr %68, i64 3
  %70 = load ptr, ptr %69, align 8, !tbaa !4
  %71 = icmp ne ptr %70, null
  br i1 %71, label %72, label %85

72:                                               ; preds = %7
  %73 = load ptr, ptr %13, align 8, !tbaa !52
  %74 = getelementptr inbounds ptr, ptr %73, i64 3
  %75 = load ptr, ptr %74, align 8, !tbaa !4
  %76 = load ptr, ptr %14, align 8, !tbaa !54
  %77 = getelementptr inbounds i32, ptr %76, i64 3
  %78 = load i32, ptr %77, align 4, !tbaa !9
  %79 = load ptr, ptr %8, align 8, !tbaa !13
  %80 = getelementptr inbounds nuw %struct.SwsInternal, ptr %79, i32 0, i32 0
  %81 = getelementptr inbounds nuw %struct.SwsContext, ptr %80, i32 0, i32 8
  %82 = load i32, ptr %81, align 8, !tbaa !55
  %83 = load i32, ptr %12, align 4, !tbaa !9
  %84 = load i32, ptr %11, align 4, !tbaa !9
  call void @fillPlane(ptr noundef %75, i32 noundef %78, i32 noundef %82, i32 noundef %83, i32 noundef %84, i8 noundef zeroext -1)
  br label %85

85:                                               ; preds = %72, %7
  %86 = load i32, ptr %12, align 4, !tbaa !9
  ret i32 %86
}