; Function Attrs: nounwind uwtable
define internal noundef i32 @bgr24ToYv12Wrapper(ptr noundef %0, ptr noundef readonly captures(none) %1, ptr noundef readonly captures(none) %2, i32 noundef %3, i32 noundef returned %4, ptr noundef readonly captures(none) %5, ptr noundef readonly captures(none) %6) #3 {
  %8 = load ptr, ptr @ff_rgb24toyv12, align 8, !tbaa !51
  %9 = load ptr, ptr %1, align 8, !tbaa !49
  %10 = load ptr, ptr %5, align 8, !tbaa !49
  %11 = load i32, ptr %6, align 4, !tbaa !48
  %12 = mul nsw i32 %11, %3
  %13 = sext i32 %12 to i64
  %14 = getelementptr inbounds i8, ptr %10, i64 %13
  %15 = getelementptr inbounds nuw i8, ptr %5, i64 8
  %16 = load ptr, ptr %15, align 8, !tbaa !49
  %17 = ashr i32 %3, 1
  %18 = getelementptr inbounds nuw i8, ptr %6, i64 4
  %19 = load i32, ptr %18, align 4, !tbaa !48
  %20 = mul nsw i32 %19, %17
  %21 = sext i32 %20 to i64
  %22 = getelementptr inbounds i8, ptr %16, i64 %21
  %23 = getelementptr inbounds nuw i8, ptr %5, i64 16
  %24 = load ptr, ptr %23, align 8, !tbaa !49
  %25 = getelementptr inbounds nuw i8, ptr %6, i64 8
  %26 = load i32, ptr %25, align 4, !tbaa !48
  %27 = mul nsw i32 %26, %17
  %28 = sext i32 %27 to i64
  %29 = getelementptr inbounds i8, ptr %24, i64 %28
  %30 = getelementptr inbounds nuw i8, ptr %0, i64 56
  %31 = load i32, ptr %30, align 8, !tbaa !50
  %32 = load i32, ptr %2, align 4, !tbaa !48
  %33 = getelementptr inbounds nuw i8, ptr %0, i64 39552
  tail call void %8(ptr noundef %9, ptr noundef %14, ptr noundef %22, ptr noundef %29, i32 noundef %31, i32 noundef %4, i32 noundef %11, i32 noundef %19, i32 noundef %32, ptr noundef nonnull %33) #13
  %34 = getelementptr inbounds nuw i8, ptr %5, i64 24
  %35 = load ptr, ptr %34, align 8, !tbaa !49
  %.not = icmp ne ptr %35, null
  %36 = icmp sgt i32 %4, 0
  %or.cond = and i1 %36, %.not
  br i1 %or.cond, label %.lr.ph.i, label %fillPlane.exit

.lr.ph.i:                                         ; preds = %7
  %37 = load i32, ptr %30, align 8, !tbaa !50
  %38 = getelementptr inbounds nuw i8, ptr %6, i64 12
  %39 = load i32, ptr %38, align 4, !tbaa !48
  %40 = mul nsw i32 %39, %3
  %41 = sext i32 %40 to i64
  %42 = getelementptr inbounds i8, ptr %35, i64 %41
  %43 = sext i32 %37 to i64
  %44 = sext i32 %39 to i64
  br label %45

45:                                               ; preds = %45, %.lr.ph.i
  %.012.i = phi ptr [ %42, %.lr.ph.i ], [ %46, %45 ]
  %.01011.i = phi i32 [ 0, %.lr.ph.i ], [ %47, %45 ]
  tail call void @llvm.memset.p0.i64(ptr align 1 %.012.i, i8 -1, i64 %43, i1 false)
  %46 = getelementptr inbounds i8, ptr %.012.i, i64 %44
  %47 = add nuw nsw i32 %.01011.i, 1
  %exitcond.not.i = icmp eq i32 %47, %4
  br i1 %exitcond.not.i, label %fillPlane.exit, label %45, !llvm.loop !64

fillPlane.exit:                                   ; preds = %45, %7
  ret i32 %4
}